; Function Attrs: nounwind uwtable
define noundef nonnull ptr @l_Array_anyMUnsafe_any___at_Lean_expandExplicitBinders___spec__1___boxed(ptr noundef %0, ptr noundef %1, ptr noundef %2) local_unnamed_addr #0 {
  %4 = getelementptr i8, ptr %1, i64 8
  %.val = load i64, ptr %4, align 8, !tbaa !13
  %5 = ptrtoint ptr %1 to i64
  %6 = and i64 %5, 1
  %.not = icmp eq i64 %6, 0
  br i1 %.not, label %7, label %lean_dec.exit10

7:                                                ; preds = %3
  %8 = load i32, ptr %1, align 4, !tbaa !5
  %9 = icmp sgt i32 %8, 1
  br i1 %9, label %10, label %12, !prof !10

10:                                               ; preds = %7
  %11 = add nsw i32 %8, -1
  store i32 %11, ptr %1, align 4, !tbaa !5
  br label %lean_dec.exit10

12:                                               ; preds = %7
  %.not.i = icmp eq i32 %8, 0
  br i1 %.not.i, label %lean_dec.exit10, label %13

13:                                               ; preds = %12
  tail call void @lean_dec_ref_cold(ptr noundef nonnull %1) #5
  br label %lean_dec.exit10

lean_dec.exit10:                                  ; preds = %13, %12, %10, %3
  %14 = getelementptr i8, ptr %2, i64 8
  %.val15 = load i64, ptr %14, align 8, !tbaa !13
  %15 = ptrtoint ptr %2 to i64
  %16 = and i64 %15, 1
  %.not17 = icmp eq i64 %16, 0
  br i1 %.not17, label %17, label %lean_dec.exit9

17:                                               ; preds = %lean_dec.exit10
  %18 = load i32, ptr %2, align 4, !tbaa !5
  %19 = icmp sgt i32 %18, 1
  br i1 %19, label %20, label %22, !prof !10

20:                                               ; preds = %17
  %21 = add nsw i32 %18, -1
  store i32 %21, ptr %2, align 4, !tbaa !5
  br label %lean_dec.exit9

22:                                               ; preds = %17
  %.not.i11 = icmp eq i32 %18, 0
  br i1 %.not.i11, label %lean_dec.exit9, label %23

23:                                               ; preds = %22
  tail call void @lean_dec_ref_cold(ptr noundef nonnull %2) #5
  br label %lean_dec.exit9

lean_dec.exit9:                                   ; preds = %23, %22, %20, %lean_dec.exit10
  %.not29.i = icmp eq i64 %.val, %.val15
  br i1 %.not29.i, label %l_Array_anyMUnsafe_any___at_Lean_expandExplicitBinders___spec__1.exit, label %.lr.ph.i

.lr.ph.i:                                         ; preds = %lean_dec.exit9
  %24 = getelementptr inbounds nuw i8, ptr %0, i64 24
  br label %27

25:                                               ; preds = %lean_dec.exit.i
  %26 = add i64 %.01630.i, 1
  %.not.i16 = icmp eq i64 %26, %.val15
  br i1 %.not.i16, label %l_Array_anyMUnsafe_any___at_Lean_expandExplicitBinders___spec__1.exit, label %27

27:                                               ; preds = %25, %.lr.ph.i
  %.01630.i = phi i64 [ %.val, %.lr.ph.i ], [ %26, %25 ]
  %28 = getelementptr inbounds nuw [0 x ptr], ptr %24, i64 0, i64 %.01630.i
  %29 = load ptr, ptr %28, align 8, !tbaa !11
  %30 = ptrtoint ptr %29 to i64
  %31 = and i64 %30, 1
  %.not.i21.i = icmp eq i64 %31, 0
  br i1 %.not.i21.i, label %32, label %lean_array_uget.exit.i

32:                                               ; preds = %27
  %.val.i.i.i = load i32, ptr %29, align 4, !tbaa !5
  %33 = icmp sgt i32 %.val.i.i.i, 0
  br i1 %33, label %34, label %36, !prof !10

34:                                               ; preds = %32
  %35 = add nuw i32 %.val.i.i.i, 1
  store i32 %35, ptr %29, align 4, !tbaa !5
  br label %lean_array_uget.exit.i

36:                                               ; preds = %32
  %.not.i.i.i = icmp eq i32 %.val.i.i.i, 0
  br i1 %.not.i.i.i, label %lean_array_uget.exit.i, label %37

37:                                               ; preds = %36
  tail call void @lean_inc_ref_cold(ptr noundef nonnull %29) #5
  br label %lean_array_uget.exit.i

lean_array_uget.exit.i:                           ; preds = %37, %36, %34, %27
  %38 = tail call ptr @l_Lean_Syntax_getKind(ptr noundef %29) #5
  %39 = load ptr, ptr @l_Lean_bracketedExplicitBinders___closed__2, align 8, !tbaa !11
  %40 = tail call zeroext i8 @lean_name_eq(ptr noundef %38, ptr noundef %39) #5
  %41 = ptrtoint ptr %38 to i64
  %42 = and i64 %41, 1
  %.not28.i = icmp eq i64 %42, 0
  br i1 %.not28.i, label %43, label %lean_dec.exit.i

43:                                               ; preds = %lean_array_uget.exit.i
  %44 = load i32, ptr %38, align 4, !tbaa !5
  %45 = icmp sgt i32 %44, 1
  br i1 %45, label %46, label %48, !prof !10

46:                                               ; preds = %43
  %47 = add nsw i32 %44, -1
  store i32 %47, ptr %38, align 4, !tbaa !5
  br label %lean_dec.exit.i

48:                                               ; preds = %43
  %.not.i.i = icmp eq i32 %44, 0
  br i1 %.not.i.i, label %lean_dec.exit.i, label %49

49:                                               ; preds = %48
  tail call void @lean_dec_ref_cold(ptr noundef nonnull %38) #5
  br label %lean_dec.exit.i

lean_dec.exit.i:                                  ; preds = %49, %48, %46, %lean_array_uget.exit.i
  %50 = icmp eq i8 %40, 0
  br i1 %50, label %l_Array_anyMUnsafe_any___at_Lean_expandExplicitBinders___spec__1.exit, label %25

l_Array_anyMUnsafe_any___at_Lean_expandExplicitBinders___spec__1.exit: ; preds = %25, %lean_dec.exit.i, %lean_dec.exit9
  %.2.ph.i = phi i64 [ 1, %lean_dec.exit9 ], [ 1, %25 ], [ 3, %lean_dec.exit.i ]
  %51 = ptrtoint ptr %0 to i64
  %52 = and i64 %51, 1
  %.not18 = icmp eq i64 %52, 0
  br i1 %.not18, label %53, label %lean_dec.exit

53:                                               ; preds = %l_Array_anyMUnsafe_any___at_Lean_expandExplicitBinders___spec__1.exit
  %54 = load i32, ptr %0, align 4, !tbaa !5
  %55 = icmp sgt i32 %54, 1
  br i1 %55, label %56, label %58, !prof !10

56:                                               ; preds = %53
  %57 = add nsw i32 %54, -1
  store i32 %57, ptr %0, align 4, !tbaa !5
  br label %lean_dec.exit

58:                                               ; preds = %53
  %.not.i13 = icmp eq i32 %54, 0
  br i1 %.not.i13, label %lean_dec.exit, label %59

59:                                               ; preds = %58
  tail call void @lean_dec_ref_cold(ptr noundef nonnull %0) #5
  br label %lean_dec.exit

lean_dec.exit:                                    ; preds = %59, %58, %56, %l_Array_anyMUnsafe_any___at_Lean_expandExplicitBinders___spec__1.exit
  %60 = inttoptr i64 %.2.ph.i to ptr
  ret ptr %60
}